target datalayout = "e-m:e-p270:32:32-p271:32:32-p272:64:64-i64:64-i128:128-f80:128-n8:16:32:64-S128"
target triple = "x86_64-pc-linux-gnu"

%union.PJ_COORD = type { [4 x double] }
%struct.PJconsts = type <{ ptr, ptr, ptr, ptr, ptr, ptr, ptr, ptr, ptr, ptr, ptr, ptr, i32, [4 x i8], ptr, ptr, ptr, ptr, ptr, ptr, ptr, ptr, double, double, double, double, double, double, double, double, double, double, double, double, double, double, double, double, double, double, double, double, double, double, i32, i32, i32, i32, i32, i32, i32, i32, i32, i32, i32, [4 x i8], ptr, ptr, ptr, ptr, ptr, ptr, double, double, double, double, double, double, double, double, double, double, double, i32, [4 x i8], [7 x double], i32, [4 x i8], ptr, ptr, double, double, i32, [4 x i8], %"class.std::shared_ptr", i8, [7 x i8], double, i8, [7 x i8], %"class.std::__cxx11::basic_string", %"class.std::__cxx11::basic_string", %"class.std::__cxx11::basic_string", i8, [7 x i8], %"class.std::vector", i32, [4 x i8], %"class.std::vector.3", i32, i8, i8, i8, i8 }>
%"class.std::shared_ptr" = type { %"class.std::__shared_ptr" }
%"class.std::__shared_ptr" = type { ptr, %"class.std::__shared_count" }
%"class.std::__shared_count" = type { ptr }
%"class.std::__cxx11::basic_string" = type { %"struct.std::__cxx11::basic_string<char>::_Alloc_hider", i64, %union.anon }
%"struct.std::__cxx11::basic_string<char>::_Alloc_hider" = type { ptr }
%union.anon = type { i64, [8 x i8] }
%"class.std::vector" = type { %"struct.std::_Vector_base" }
%"struct.std::_Vector_base" = type { %"struct.std::_Vector_base<osgeo::proj::operation::GridDescription, std::allocator<osgeo::proj::operation::GridDescription>>::_Vector_impl" }
%"struct.std::_Vector_base<osgeo::proj::operation::GridDescription, std::allocator<osgeo::proj::operation::GridDescription>>::_Vector_impl" = type { %"struct.std::_Vector_base<osgeo::proj::operation::GridDescription, std::allocator<osgeo::proj::operation::GridDescription>>::_Vector_impl_data" }
%"struct.std::_Vector_base<osgeo::proj::operation::GridDescription, std::allocator<osgeo::proj::operation::GridDescription>>::_Vector_impl_data" = type { ptr, ptr, ptr }
%"class.std::vector.3" = type { %"struct.std::_Vector_base.4" }
%"struct.std::_Vector_base.4" = type { %"struct.std::_Vector_base<PJCoordOperation, std::allocator<PJCoordOperation>>::_Vector_impl" }
%"struct.std::_Vector_base<PJCoordOperation, std::allocator<PJCoordOperation>>::_Vector_impl" = type { %"struct.std::_Vector_base<PJCoordOperation, std::allocator<PJCoordOperation>>::_Vector_impl_data" }
%"struct.std::_Vector_base<PJCoordOperation, std::allocator<PJCoordOperation>>::_Vector_impl_data" = type { ptr, ptr, ptr }
%struct.PJ_LPZ = type { double, double, double }

; Function Attrs: mustprogress uwtable
define void @proj_geod(ptr dead_on_unwind noalias writable sret(%union.PJ_COORD) align 8 %0, ptr noundef %1, ptr noundef byval(%union.PJ_COORD) align 8 %2, ptr noundef byval(%union.PJ_COORD) align 8 %3) #1 {
  %5 = alloca ptr, align 8
  %6 = alloca %union.PJ_COORD, align 8
  store ptr %1, ptr %5, align 8
  %7 = load ptr, ptr %5, align 8
  %8 = getelementptr inbounds %struct.PJconsts, ptr %7, i32 0, i32 10
  %9 = load ptr, ptr %8, align 8
  %10 = icmp ne ptr %9, null
  br i1 %10, label %12, label %11

11:                                               ; preds = %4
  call void @_Z16proj_coord_errorv(ptr dead_on_unwind writable sret(%union.PJ_COORD) align 8 %0)
  br label %37

12:                                               ; preds = %4
  %13 = load ptr, ptr %5, align 8
  %14 = getelementptr inbounds %struct.PJconsts, ptr %13, i32 0, i32 10
  %15 = load ptr, ptr %14, align 8
  %16 = getelementptr inbounds %struct.PJ_LPZ, ptr %2, i32 0, i32 1
  %17 = load double, ptr %16, align 8
  %18 = fmul double %17, 1.800000e+02
  %19 = fdiv double %18, 0x400921FB54442D18
  %20 = getelementptr inbounds %struct.PJ_LPZ, ptr %2, i32 0, i32 0
  %21 = load double, ptr %20, align 8
  %22 = fmul double %21, 1.800000e+02
  %23 = fdiv double %22, 0x400921FB54442D18
  %24 = getelementptr inbounds %struct.PJ_LPZ, ptr %3, i32 0, i32 1
  %25 = load double, ptr %24, align 8
  %26 = fmul double %25, 1.800000e+02
  %27 = fdiv double %26, 0x400921FB54442D18
  %28 = getelementptr inbounds %struct.PJ_LPZ, ptr %3, i32 0, i32 0
  %29 = load double, ptr %28, align 8
  %30 = fmul double %29, 1.800000e+02
  %31 = fdiv double %30, 0x400921FB54442D18
  %32 = getelementptr inbounds [4 x double], ptr %6, i64 0, i64 0
  %33 = getelementptr inbounds [4 x double], ptr %6, i64 0, i64 0
  %34 = getelementptr inbounds double, ptr %33, i64 1
  %35 = getelementptr inbounds [4 x double], ptr %6, i64 0, i64 0
  %36 = getelementptr inbounds double, ptr %35, i64 2
  call void @geod_inverse(ptr noundef %15, double noundef %19, double noundef %23, double noundef %27, double noundef %31, ptr noundef %32, ptr noundef %34, ptr noundef %36)
  call void @llvm.memcpy.p0.p0.i64(ptr align 8 %0, ptr align 8 %6, i64 32, i1 false)
  br label %37

37:                                               ; preds = %12, %11
  ret void
}